target datalayout = "e-m:e-p270:32:32-p271:32:32-p272:64:64-i64:64-i128:128-f80:128-n8:16:32:64-S128"
target triple = "x86_64-pc-linux-gnu"

%"class.cv::RNG" = type { i64 }
%"class.std::__cxx11::basic_string" = type { %"struct.std::__cxx11::basic_string<char>::_Alloc_hider", i64, %union.anon }
%"struct.std::__cxx11::basic_string<char>::_Alloc_hider" = type { ptr }
%union.anon = type { i64, [8 x i8] }
%"class.std::allocator" = type { i8 }
%"class.cv::Mat" = type { i32, i32, i32, i32, ptr, ptr, ptr, ptr, ptr, ptr, %"struct.cv::MatSize", %"struct.cv::MatStep" }
%"struct.cv::MatSize" = type { ptr }
%"struct.cv::MatStep" = type { ptr, [2 x i64] }
%"class.cv::Vec.6" = type { %"class.cv::Matx.7" }
%"class.cv::Matx.7" = type { [3 x i8] }

@.str.1 = private unnamed_addr constant [117 x i8] c"generated/home/dtcxzyw/WorkSpace/Projects/compilers/llvm-opt-benchmark/bench/opencv/opencv/modules/core/src/rand.cpp\00", align 1
@.str.11 = private unnamed_addr constant [15 x i8] c"_arr.dims <= 2\00", align 1
@__func__._ZN2cvL12randShuffle_IhEEvRNS_3MatERNS_3RNGEd = private unnamed_addr constant [13 x i8] c"randShuffle_\00", align 1

; Function Attrs: mustprogress nounwind uwtable
define linkonce_odr hidden void @_ZN2cv4MatxIhLi3ELi1EEC2EPKh(ptr noundef nonnull align 1 dereferenceable(3) %0, ptr noundef %1) unnamed_addr #4 comdat align 2 {
  %3 = alloca ptr, align 8
  %4 = alloca ptr, align 8
  %5 = alloca i32, align 4
  store ptr %0, ptr %3, align 8
  store ptr %1, ptr %4, align 8
  %6 = load ptr, ptr %3, align 8
  store i32 0, ptr %5, align 4
  br label %7

7:                                                ; preds = %20, %2
  %8 = load i32, ptr %5, align 4
  %9 = icmp slt i32 %8, 3
  br i1 %9, label %10, label %23

10:                                               ; preds = %7
  %11 = load ptr, ptr %4, align 8
  %12 = load i32, ptr %5, align 4
  %13 = sext i32 %12 to i64
  %14 = getelementptr inbounds i8, ptr %11, i64 %13
  %15 = load i8, ptr %14, align 1
  %16 = getelementptr inbounds %"class.cv::Matx.7", ptr %6, i32 0, i32 0
  %17 = load i32, ptr %5, align 4
  %18 = sext i32 %17 to i64
  %19 = getelementptr inbounds [3 x i8], ptr %16, i64 0, i64 %18
  store i8 %15, ptr %19, align 1
  br label %20

20:                                               ; preds = %10
  %21 = load i32, ptr %5, align 4
  %22 = add nsw i32 %21, 1
  store i32 %22, ptr %5, align 4
  br label %7, !llvm.loop !126

23:                                               ; preds = %7
  ret void
}

; Function Attrs: mustprogress uwtable
define linkonce_odr hidden void @_ZN2cv3VecIhLi3EEC2ERKS1_(ptr noundef nonnull align 1 dereferenceable(3) %0, ptr noundef nonnull align 1 dereferenceable(3) %1) unnamed_addr #0 comdat align 2 {
  %3 = alloca ptr, align 8
  %4 = alloca ptr, align 8
  store ptr %0, ptr %3, align 8
  store ptr %1, ptr %4, align 8
  %5 = load ptr, ptr %3, align 8
  %6 = load ptr, ptr %4, align 8
  %7 = getelementptr inbounds %"class.cv::Matx.7", ptr %6, i32 0, i32 0
  %8 = getelementptr inbounds [3 x i8], ptr %7, i64 0, i64 0
  call void @_ZN2cv4MatxIhLi3ELi1EEC2EPKh(ptr noundef nonnull align 1 dereferenceable(3) %5, ptr noundef %8)
  ret void
}

; Function Attrs: mustprogress nounwind uwtable
define linkonce_odr hidden noundef i32 @_ZN2cv3RNG4nextEv(ptr noundef nonnull align 8 dereferenceable(8) %0) #4 comdat align 2 {
  %2 = alloca ptr, align 8
  store ptr %0, ptr %2, align 8
  %3 = load ptr, ptr %2, align 8
  %4 = getelementptr inbounds %"class.cv::RNG", ptr %3, i32 0, i32 0
  %5 = load i64, ptr %4, align 8
  %6 = trunc i64 %5 to i32
  %7 = zext i32 %6 to i64
  %8 = mul i64 %7, 4164903690
  %9 = getelementptr inbounds %"class.cv::RNG", ptr %3, i32 0, i32 0
  %10 = load i64, ptr %9, align 8
  %11 = lshr i64 %10, 32
  %12 = trunc i64 %11 to i32
  %13 = zext i32 %12 to i64
  %14 = add i64 %8, %13
  %15 = getelementptr inbounds %"class.cv::RNG", ptr %3, i32 0, i32 0
  store i64 %14, ptr %15, align 8
  %16 = getelementptr inbounds %"class.cv::RNG", ptr %3, i32 0, i32 0
  %17 = load i64, ptr %16, align 8
  %18 = trunc i64 %17 to i32
  ret i32 %18
}

; Function Attrs: mustprogress nounwind uwtable
define linkonce_odr hidden noundef i64 @_ZNK2cv7MatStepcvmEv(ptr noundef nonnull align 8 dereferenceable(24) %0) #4 comdat align 2 {
  %2 = alloca ptr, align 8
  store ptr %0, ptr %2, align 8
  %3 = load ptr, ptr %2, align 8
  %4 = getelementptr inbounds %"struct.cv::MatStep", ptr %3, i32 0, i32 1
  %5 = getelementptr inbounds [2 x i64], ptr %4, i64 0, i64 0
  %6 = load i64, ptr %5, align 8
  ret i64 %6
}

; Function Attrs: mustprogress nounwind uwtable
define linkonce_odr hidden noundef ptr @_ZN2cv3Mat3ptrEi(ptr noundef nonnull align 8 dereferenceable(96) %0, i32 noundef %1) #4 comdat align 2 {
  %3 = alloca ptr, align 8
  %4 = alloca i32, align 4
  store ptr %0, ptr %3, align 8
  store i32 %1, ptr %4, align 4
  %5 = load ptr, ptr %3, align 8
  %6 = getelementptr inbounds %"class.cv::Mat", ptr %5, i32 0, i32 4
  %7 = load ptr, ptr %6, align 8
  %8 = getelementptr inbounds %"class.cv::Mat", ptr %5, i32 0, i32 11
  %9 = getelementptr inbounds %"struct.cv::MatStep", ptr %8, i32 0, i32 0
  %10 = load ptr, ptr %9, align 8
  %11 = getelementptr inbounds i64, ptr %10, i64 0
  %12 = load i64, ptr %11, align 8
  %13 = load i32, ptr %4, align 4
  %14 = sext i32 %13 to i64
  %15 = mul i64 %12, %14
  %16 = getelementptr inbounds i8, ptr %7, i64 %15
  ret ptr %16
}

; Function Attrs: mustprogress uwtable
define linkonce_odr hidden void @_ZSt4swapIN2cv3VecIhLi3EEEENSt9enable_ifIXsr6__and_ISt6__not_ISt15__is_tuple_likeIT_EESt21is_move_constructibleIS6_ESt18is_move_assignableIS6_EEE5valueEvE4typeERS6_SF_(ptr noundef nonnull align 1 dereferenceable(3) %0, ptr noundef nonnull align 1 dereferenceable(3) %1) #0 comdat {
  %3 = alloca ptr, align 8
  %4 = alloca ptr, align 8
  %5 = alloca %"class.cv::Vec.6", align 1
  store ptr %0, ptr %3, align 8
  store ptr %1, ptr %4, align 8
  %6 = load ptr, ptr %3, align 8
  call void @_ZN2cv3VecIhLi3EEC2ERKS1_(ptr noundef nonnull align 1 dereferenceable(3) %5, ptr noundef nonnull align 1 dereferenceable(3) %6)
  %7 = load ptr, ptr %4, align 8
  %8 = load ptr, ptr %3, align 8
  call void @llvm.memcpy.p0.p0.i64(ptr align 1 %8, ptr align 1 %7, i64 3, i1 false)
  %9 = load ptr, ptr %4, align 8
  call void @llvm.memcpy.p0.p0.i64(ptr align 1 %9, ptr align 1 %5, i64 3, i1 false)
  ret void
}

; Function Attrs: mustprogress uwtable
define linkonce_odr hidden noundef i32 @_ZN2cv3RNGcvjEv(ptr noundef nonnull align 8 dereferenceable(8) %0) #0 comdat align 2 {
  %2 = alloca ptr, align 8
  store ptr %0, ptr %2, align 8
  %3 = load ptr, ptr %2, align 8
  %4 = call noundef i32 @_ZN2cv3RNG4nextEv(ptr noundef nonnull align 8 dereferenceable(8) %3)
  ret i32 %4
}

; Function Attrs: mustprogress nounwind uwtable
define linkonce_odr hidden noundef ptr @_ZN2cv3Mat3ptrINS_3VecIhLi3EEEEEPT_i(ptr noundef nonnull align 8 dereferenceable(96) %0, i32 noundef %1) #4 comdat align 2 {
  %3 = alloca ptr, align 8
  %4 = alloca i32, align 4
  store ptr %0, ptr %3, align 8
  store i32 %1, ptr %4, align 4
  %5 = load ptr, ptr %3, align 8
  %6 = getelementptr inbounds %"class.cv::Mat", ptr %5, i32 0, i32 4
  %7 = load ptr, ptr %6, align 8
  %8 = getelementptr inbounds %"class.cv::Mat", ptr %5, i32 0, i32 11
  %9 = getelementptr inbounds %"struct.cv::MatStep", ptr %8, i32 0, i32 0
  %10 = load ptr, ptr %9, align 8
  %11 = getelementptr inbounds i64, ptr %10, i64 0
  %12 = load i64, ptr %11, align 8
  %13 = load i32, ptr %4, align 4
  %14 = sext i32 %13 to i64
  %15 = mul i64 %12, %14
  %16 = getelementptr inbounds i8, ptr %7, i64 %15
  ret ptr %16
}

; Function Attrs: mustprogress nounwind uwtable
define linkonce_odr hidden noundef zeroext i1 @_ZNK2cv3Mat12isContinuousEv(ptr noundef nonnull align 8 dereferenceable(96) %0) #4 comdat align 2 {
  %2 = alloca ptr, align 8
  store ptr %0, ptr %2, align 8
  %3 = load ptr, ptr %2, align 8
  %4 = getelementptr inbounds %"class.cv::Mat", ptr %3, i32 0, i32 0
  %5 = load i32, ptr %4, align 8
  %6 = and i32 %5, 16384
  %7 = icmp ne i32 %6, 0
  ret i1 %7
}

; Function Attrs: mustprogress uwtable
define internal void @_ZN2cvL12randShuffle_INS_3VecIhLi3EEEEEvRNS_3MatERNS_3RNGEd(ptr noundef nonnull align 8 dereferenceable(96) %0, ptr noundef nonnull align 8 dereferenceable(8) %1, double noundef %2) #0 personality ptr @__gxx_personality_v0 {
  %4 = alloca ptr, align 8
  %5 = alloca ptr, align 8
  %6 = alloca double, align 8
  %7 = alloca i32, align 4
  %8 = alloca ptr, align 8
  %9 = alloca i32, align 4
  %10 = alloca i32, align 4
  %11 = alloca %"class.std::__cxx11::basic_string", align 8
  %12 = alloca %"class.std::allocator", align 1
  %13 = alloca ptr, align 8
  %14 = alloca i32, align 4
  %15 = alloca ptr, align 8
  %16 = alloca i64, align 8
  %17 = alloca i32, align 4
  %18 = alloca i32, align 4
  %19 = alloca i32, align 4
  %20 = alloca ptr, align 8
  %21 = alloca i32, align 4
  %22 = alloca i32, align 4
  %23 = alloca i32, align 4
  %24 = alloca i32, align 4
  store ptr %0, ptr %4, align 8
  store ptr %1, ptr %5, align 8
  store double %2, ptr %6, align 8
  %25 = load ptr, ptr %4, align 8
  %26 = call noundef i64 @_ZNK2cv3Mat5totalEv(ptr noundef nonnull align 8 dereferenceable(96) %25)
  %27 = trunc i64 %26 to i32
  store i32 %27, ptr %7, align 4
  %28 = load ptr, ptr %4, align 8
  %29 = call noundef zeroext i1 @_ZNK2cv3Mat12isContinuousEv(ptr noundef nonnull align 8 dereferenceable(96) %28)
  br i1 %29, label %30, label %54

30:                                               ; preds = %3
  %31 = load ptr, ptr %4, align 8
  %32 = call noundef ptr @_ZN2cv3Mat3ptrINS_3VecIhLi3EEEEEPT_i(ptr noundef nonnull align 8 dereferenceable(96) %31, i32 noundef 0)
  store ptr %32, ptr %8, align 8
  store i32 0, ptr %9, align 4
  br label %33

33:                                               ; preds = %50, %30
  %34 = load i32, ptr %9, align 4
  %35 = load i32, ptr %7, align 4
  %36 = icmp ult i32 %34, %35
  br i1 %36, label %37, label %53

37:                                               ; preds = %33
  %38 = load ptr, ptr %5, align 8
  %39 = call noundef i32 @_ZN2cv3RNGcvjEv(ptr noundef nonnull align 8 dereferenceable(8) %38)
  %40 = load i32, ptr %7, align 4
  %41 = urem i32 %39, %40
  store i32 %41, ptr %10, align 4
  %42 = load ptr, ptr %8, align 8
  %43 = load i32, ptr %10, align 4
  %44 = zext i32 %43 to i64
  %45 = getelementptr inbounds %"class.cv::Vec.6", ptr %42, i64 %44
  %46 = load ptr, ptr %8, align 8
  %47 = load i32, ptr %9, align 4
  %48 = zext i32 %47 to i64
  %49 = getelementptr inbounds %"class.cv::Vec.6", ptr %46, i64 %48
  call void @_ZSt4swapIN2cv3VecIhLi3EEEENSt9enable_ifIXsr6__and_ISt6__not_ISt15__is_tuple_likeIT_EESt21is_move_constructibleIS6_ESt18is_move_assignableIS6_EEE5valueEvE4typeERS6_SF_(ptr noundef nonnull align 1 dereferenceable(3) %45, ptr noundef nonnull align 1 dereferenceable(3) %49)
  br label %50

50:                                               ; preds = %37
  %51 = load i32, ptr %9, align 4
  %52 = add i32 %51, 1
  store i32 %52, ptr %9, align 4
  br label %33, !llvm.loop !34

53:                                               ; preds = %33
  br label %132

54:                                               ; preds = %3
  br label %55

55:                                               ; preds = %54
  %56 = load ptr, ptr %4, align 8
  %57 = getelementptr inbounds %"class.cv::Mat", ptr %56, i32 0, i32 1
  %58 = load i32, ptr %57, align 4
  %59 = icmp sle i32 %58, 2
  br i1 %59, label %60, label %61

60:                                               ; preds = %55
  br label %73

61:                                               ; preds = %55
  call void @_ZNSaIcEC1Ev(ptr noundef nonnull align 1 dereferenceable(1) %12) #12
  invoke void @_ZNSt7__cxx1112basic_stringIcSt11char_traitsIcESaIcEEC1EPKcRKS3_(ptr noundef nonnull align 8 dereferenceable(32) %11, ptr noundef @.str.11, ptr noundef nonnull align 1 dereferenceable(1) %12)
          to label %62 unwind label %64

62:                                               ; preds = %61
  invoke void @_ZN2cv5errorEiRKNSt7__cxx1112basic_stringIcSt11char_traitsIcESaIcEEEPKcS9_i(i32 noundef -215, ptr noundef nonnull align 8 dereferenceable(32) %11, ptr noundef @__func__._ZN2cvL12randShuffle_IhEEvRNS_3MatERNS_3RNGEd, ptr noundef @.str.1, i32 noundef 697) #13
          to label %63 unwind label %68

63:                                               ; preds = %62
  unreachable

64:                                               ; preds = %61
  %65 = landingpad { ptr, i32 }
          cleanup
  %66 = extractvalue { ptr, i32 } %65, 0
  store ptr %66, ptr %13, align 8
  %67 = extractvalue { ptr, i32 } %65, 1
  store i32 %67, ptr %14, align 4
  br label %72

68:                                               ; preds = %62
  %69 = landingpad { ptr, i32 }
          cleanup
  %70 = extractvalue { ptr, i32 } %69, 0
  store ptr %70, ptr %13, align 8
  %71 = extractvalue { ptr, i32 } %69, 1
  store i32 %71, ptr %14, align 4
  call void @_ZNSt7__cxx1112basic_stringIcSt11char_traitsIcESaIcEED1Ev(ptr noundef nonnull align 8 dereferenceable(32) %11) #12
  br label %72

72:                                               ; preds = %68, %64
  call void @_ZNSaIcED1Ev(ptr noundef nonnull align 1 dereferenceable(1) %12) #12
  br label %133

73:                                               ; preds = %60
  br label %74

74:                                               ; preds = %73
  %75 = load ptr, ptr %4, align 8
  %76 = call noundef ptr @_ZN2cv3Mat3ptrEi(ptr noundef nonnull align 8 dereferenceable(96) %75, i32 noundef 0)
  store ptr %76, ptr %15, align 8
  %77 = load ptr, ptr %4, align 8
  %78 = getelementptr inbounds %"class.cv::Mat", ptr %77, i32 0, i32 11
  %79 = call noundef i64 @_ZNK2cv7MatStepcvmEv(ptr noundef nonnull align 8 dereferenceable(24) %78)
  store i64 %79, ptr %16, align 8
  %80 = load ptr, ptr %4, align 8
  %81 = getelementptr inbounds %"class.cv::Mat", ptr %80, i32 0, i32 2
  %82 = load i32, ptr %81, align 8
  store i32 %82, ptr %17, align 4
  %83 = load ptr, ptr %4, align 8
  %84 = getelementptr inbounds %"class.cv::Mat", ptr %83, i32 0, i32 3
  %85 = load i32, ptr %84, align 4
  store i32 %85, ptr %18, align 4
  store i32 0, ptr %19, align 4
  br label %86

86:                                               ; preds = %128, %74
  %87 = load i32, ptr %19, align 4
  %88 = load i32, ptr %17, align 4
  %89 = icmp slt i32 %87, %88
  br i1 %89, label %90, label %131

90:                                               ; preds = %86
  %91 = load ptr, ptr %4, align 8
  %92 = load i32, ptr %19, align 4
  %93 = call noundef ptr @_ZN2cv3Mat3ptrINS_3VecIhLi3EEEEEPT_i(ptr noundef nonnull align 8 dereferenceable(96) %91, i32 noundef %92)
  store ptr %93, ptr %20, align 8
  store i32 0, ptr %21, align 4
  br label %94

94:                                               ; preds = %124, %90
  %95 = load i32, ptr %21, align 4
  %96 = load i32, ptr %18, align 4
  %97 = icmp slt i32 %95, %96
  br i1 %97, label %98, label %127

98:                                               ; preds = %94
  %99 = load ptr, ptr %5, align 8
  %100 = call noundef i32 @_ZN2cv3RNGcvjEv(ptr noundef nonnull align 8 dereferenceable(8) %99)
  %101 = load i32, ptr %7, align 4
  %102 = urem i32 %100, %101
  store i32 %102, ptr %22, align 4
  %103 = load i32, ptr %22, align 4
  %104 = load i32, ptr %18, align 4
  %105 = udiv i32 %103, %104
  store i32 %105, ptr %23, align 4
  %106 = load i32, ptr %22, align 4
  %107 = load i32, ptr %23, align 4
  %108 = load i32, ptr %18, align 4
  %109 = mul i32 %107, %108
  %110 = sub i32 %106, %109
  store i32 %110, ptr %24, align 4
  %111 = load ptr, ptr %20, align 8
  %112 = load i32, ptr %21, align 4
  %113 = sext i32 %112 to i64
  %114 = getelementptr inbounds %"class.cv::Vec.6", ptr %111, i64 %113
  %115 = load ptr, ptr %15, align 8
  %116 = load i64, ptr %16, align 8
  %117 = load i32, ptr %23, align 4
  %118 = sext i32 %117 to i64
  %119 = mul i64 %116, %118
  %120 = getelementptr inbounds i8, ptr %115, i64 %119
  %121 = load i32, ptr %24, align 4
  %122 = sext i32 %121 to i64
  %123 = getelementptr inbounds %"class.cv::Vec.6", ptr %120, i64 %122
  call void @_ZSt4swapIN2cv3VecIhLi3EEEENSt9enable_ifIXsr6__and_ISt6__not_ISt15__is_tuple_likeIT_EESt21is_move_constructibleIS6_ESt18is_move_assignableIS6_EEE5valueEvE4typeERS6_SF_(ptr noundef nonnull align 1 dereferenceable(3) %114, ptr noundef nonnull align 1 dereferenceable(3) %123)
  br label %124

124:                                              ; preds = %98
  %125 = load i32, ptr %21, align 4
  %126 = add nsw i32 %125, 1
  store i32 %126, ptr %21, align 4
  br label %94, !llvm.loop !35

127:                                              ; preds = %94
  br label %128

128:                                              ; preds = %127
  %129 = load i32, ptr %19, align 4
  %130 = add nsw i32 %129, 1
  store i32 %130, ptr %19, align 4
  br label %86, !llvm.loop !36

131:                                              ; preds = %86
  br label %132

132:                                              ; preds = %131, %53
  ret void

133:                                              ; preds = %72
  %134 = load ptr, ptr %13, align 8
  %135 = load i32, ptr %14, align 4
  %136 = insertvalue { ptr, i32 } poison, ptr %134, 0
  %137 = insertvalue { ptr, i32 } %136, i32 %135, 1
  resume { ptr, i32 } %137
}